; Function Attrs: mustprogress nounwind uwtable
define void @_ZN6icu_7514SimpleTimeZoneD2Ev(ptr noundef nonnull align 8 dereferenceable(160) %this) unnamed_addr #6 align 2 personality ptr @__gxx_personality_v0 {
entry:
  store ptr getelementptr inbounds ({ [24 x ptr] }, ptr @_ZTVN6icu_7514SimpleTimeZoneE, i64 0, i32 0, i64 2), ptr %this, align 8
  %initialRule.i = getelementptr inbounds i8, ptr %this, i64 128
  %0 = load ptr, ptr %initialRule.i, align 8
  %cmp.not.i = icmp eq ptr %0, null
  br i1 %cmp.not.i, label %if.end.i, label %delete.notnull.i

delete.notnull.i:                                 ; preds = %entry
  %vtable.i = load ptr, ptr %0, align 8
  %vfn.i = getelementptr inbounds i8, ptr %vtable.i, i64 8
  %1 = load ptr, ptr %vfn.i, align 8
  tail call void %1(ptr noundef nonnull align 8 dereferenceable(80) %0) #13
  br label %if.end.i

if.end.i:                                         ; preds = %delete.notnull.i, %entry
  %firstTransition.i = getelementptr inbounds i8, ptr %this, i64 136
  %2 = load ptr, ptr %firstTransition.i, align 8
  %cmp3.not.i = icmp eq ptr %2, null
  br i1 %cmp3.not.i, label %if.end11.i, label %delete.notnull7.i

delete.notnull7.i:                                ; preds = %if.end.i
  %vtable8.i = load ptr, ptr %2, align 8
  %vfn9.i = getelementptr inbounds i8, ptr %vtable8.i, i64 8
  %3 = load ptr, ptr %vfn9.i, align 8
  tail call void %3(ptr noundef nonnull align 8 dereferenceable(32) %2) #13
  br label %if.end11.i

if.end11.i:                                       ; preds = %delete.notnull7.i, %if.end.i
  %stdRule.i = getelementptr inbounds i8, ptr %this, i64 144
  %4 = load ptr, ptr %stdRule.i, align 8
  %cmp12.not.i = icmp eq ptr %4, null
  br i1 %cmp12.not.i, label %if.end20.i, label %delete.notnull16.i

delete.notnull16.i:                               ; preds = %if.end11.i
  %vtable17.i = load ptr, ptr %4, align 8
  %vfn18.i = getelementptr inbounds i8, ptr %vtable17.i, i64 8
  %5 = load ptr, ptr %vfn18.i, align 8
  tail call void %5(ptr noundef nonnull align 8 dereferenceable(96) %4) #13
  br label %if.end20.i

if.end20.i:                                       ; preds = %delete.notnull16.i, %if.end11.i
  %dstRule.i = getelementptr inbounds i8, ptr %this, i64 152
  %6 = load ptr, ptr %dstRule.i, align 8
  %cmp21.not.i = icmp eq ptr %6, null
  br i1 %cmp21.not.i, label %_ZN6icu_7514SimpleTimeZone21deleteTransitionRulesEv.exit, label %delete.notnull25.i

delete.notnull25.i:                               ; preds = %if.end20.i
  %vtable26.i = load ptr, ptr %6, align 8
  %vfn27.i = getelementptr inbounds i8, ptr %vtable26.i, i64 8
  %7 = load ptr, ptr %vfn27.i, align 8
  tail call void %7(ptr noundef nonnull align 8 dereferenceable(96) %6) #13
  br label %_ZN6icu_7514SimpleTimeZone21deleteTransitionRulesEv.exit

_ZN6icu_7514SimpleTimeZone21deleteTransitionRulesEv.exit: ; preds = %if.end20.i, %delete.notnull25.i
  %transitionRulesInitialized.i.i = getelementptr inbounds i8, ptr %this, i64 120
  store i8 0, ptr %transitionRulesInitialized.i.i, align 8
  tail call void @llvm.memset.p0.i64(ptr noundef nonnull align 8 dereferenceable(32) %initialRule.i, i8 0, i64 32, i1 false)
  tail call void @_ZN6icu_7513BasicTimeZoneD2Ev(ptr noundef nonnull align 8 dereferenceable(72) %this) #13
  ret void
}